; Function Attrs: mustprogress nounwind uwtable
define internal void @_ZN12_GLOBAL__N_120elim_small_bv_tactic2rwD2Ev(ptr noundef nonnull align 8 dereferenceable(656) %this) unnamed_addr #4 align 2 personality ptr @__gxx_personality_v0 {
entry:
  store ptr getelementptr inbounds ({ [4 x ptr] }, ptr @_ZTVN12_GLOBAL__N_120elim_small_bv_tactic2rwE, i64 0, i32 0, i64 2), ptr %this, align 8
  %m_bindings.i = getelementptr inbounds i8, ptr %this, i64 632
  %m_nodes.i.i.i = getelementptr inbounds i8, ptr %this, i64 640
  %0 = load ptr, ptr %m_nodes.i.i.i, align 8
  %cmp.i.i.i.i = icmp eq ptr %0, null
  br i1 %cmp.i.i.i.i, label %_ZN10ref_vectorI4sort11ast_managerED2Ev.exit.i, label %_ZNK6vectorIP4sortLb0EjE4sizeEv.exit.i.i.i

_ZNK6vectorIP4sortLb0EjE4sizeEv.exit.i.i.i:       ; preds = %entry
  %arrayidx.i.i.i.i = getelementptr inbounds i8, ptr %0, i64 -4
  %1 = load i32, ptr %arrayidx.i.i.i.i, align 4
  %2 = zext i32 %1 to i64
  %add.ptr.i.i.i = getelementptr inbounds ptr, ptr %0, i64 %2
  %cmp3.i.not.i.i.i = icmp eq i32 %1, 0
  br i1 %cmp3.i.not.i.i.i, label %if.then.i.i.i.i.i.i, label %for.body.i.i.i.i

for.body.i.i.i.i:                                 ; preds = %_ZNK6vectorIP4sortLb0EjE4sizeEv.exit.i.i.i, %_ZN15ref_vector_coreI4sort19ref_manager_wrapperIS0_11ast_managerEE7dec_refEPS0_.exit.i.i.i.i
  %it.04.i.i.i.i = phi ptr [ %incdec.ptr.i.i.i.i, %_ZN15ref_vector_coreI4sort19ref_manager_wrapperIS0_11ast_managerEE7dec_refEPS0_.exit.i.i.i.i ], [ %0, %_ZNK6vectorIP4sortLb0EjE4sizeEv.exit.i.i.i ]
  %3 = load ptr, ptr %it.04.i.i.i.i, align 8
  %4 = load ptr, ptr %m_bindings.i, align 8
  %tobool.not.i.i.i.i.i.i.i = icmp eq ptr %3, null
  br i1 %tobool.not.i.i.i.i.i.i.i, label %_ZN15ref_vector_coreI4sort19ref_manager_wrapperIS0_11ast_managerEE7dec_refEPS0_.exit.i.i.i.i, label %if.then.i.i.i.i.i.i.i

if.then.i.i.i.i.i.i.i:                            ; preds = %for.body.i.i.i.i
  %m_ref_count.i.i.i.i.i.i.i.i = getelementptr inbounds i8, ptr %3, i64 8
  %5 = load i32, ptr %m_ref_count.i.i.i.i.i.i.i.i, align 4
  %dec.i.i.i.i.i.i.i.i = add i32 %5, -1
  store i32 %dec.i.i.i.i.i.i.i.i, ptr %m_ref_count.i.i.i.i.i.i.i.i, align 4
  %cmp.i.i.i.i.i.i.i = icmp eq i32 %dec.i.i.i.i.i.i.i.i, 0
  br i1 %cmp.i.i.i.i.i.i.i, label %if.then2.i.i.i.i.i.i.i, label %_ZN15ref_vector_coreI4sort19ref_manager_wrapperIS0_11ast_managerEE7dec_refEPS0_.exit.i.i.i.i

if.then2.i.i.i.i.i.i.i:                           ; preds = %if.then.i.i.i.i.i.i.i
  invoke void @_ZN11ast_manager11delete_nodeEP3ast(ptr noundef nonnull align 8 dereferenceable(976) %4, ptr noundef nonnull %3)
          to label %_ZN15ref_vector_coreI4sort19ref_manager_wrapperIS0_11ast_managerEE7dec_refEPS0_.exit.i.i.i.i unwind label %terminate.lpad.i.i.i

_ZN15ref_vector_coreI4sort19ref_manager_wrapperIS0_11ast_managerEE7dec_refEPS0_.exit.i.i.i.i: ; preds = %if.then2.i.i.i.i.i.i.i, %if.then.i.i.i.i.i.i.i, %for.body.i.i.i.i
  %incdec.ptr.i.i.i.i = getelementptr inbounds i8, ptr %it.04.i.i.i.i, i64 8
  %cmp.i1.i.i.i = icmp ult ptr %incdec.ptr.i.i.i.i, %add.ptr.i.i.i
  br i1 %cmp.i1.i.i.i, label %for.body.i.i.i.i, label %invoke.cont8.i.i.i, !llvm.loop !4

invoke.cont8.i.i.i:                               ; preds = %_ZN15ref_vector_coreI4sort19ref_manager_wrapperIS0_11ast_managerEE7dec_refEPS0_.exit.i.i.i.i
  %.pre.i.i.i = load ptr, ptr %m_nodes.i.i.i, align 8
  %tobool.not.i.i.i.i.i.i = icmp eq ptr %.pre.i.i.i, null
  br i1 %tobool.not.i.i.i.i.i.i, label %_ZN10ref_vectorI4sort11ast_managerED2Ev.exit.i, label %if.then.i.i.i.i.i.i

if.then.i.i.i.i.i.i:                              ; preds = %invoke.cont8.i.i.i, %_ZNK6vectorIP4sortLb0EjE4sizeEv.exit.i.i.i
  %6 = phi ptr [ %.pre.i.i.i, %invoke.cont8.i.i.i ], [ %0, %_ZNK6vectorIP4sortLb0EjE4sizeEv.exit.i.i.i ]
  %add.ptr.i.i.i.i.i.i.i = getelementptr inbounds i8, ptr %6, i64 -8
  invoke void @_ZN6memory10deallocateEPv(ptr noundef nonnull %add.ptr.i.i.i.i.i.i.i)
          to label %_ZN10ref_vectorI4sort11ast_managerED2Ev.exit.i unwind label %terminate.lpad.i.i.i.i.i

terminate.lpad.i.i.i.i.i:                         ; preds = %if.then.i.i.i.i.i.i
  %7 = landingpad { ptr, i32 }
          catch ptr null
  %8 = extractvalue { ptr, i32 } %7, 0
  tail call void @__clang_call_terminate(ptr %8) #16
  unreachable

terminate.lpad.i.i.i:                             ; preds = %if.then2.i.i.i.i.i.i.i
  %9 = landingpad { ptr, i32 }
          catch ptr null
  %10 = extractvalue { ptr, i32 } %9, 0
  tail call void @__clang_call_terminate(ptr %10) #16
  unreachable

_ZN10ref_vectorI4sort11ast_managerED2Ev.exit.i:   ; preds = %if.then.i.i.i.i.i.i, %invoke.cont8.i.i.i, %entry
  %m_mc.i = getelementptr inbounds i8, ptr %this, i64 592
  %11 = load ptr, ptr %m_mc.i, align 8
  %tobool.not.i.i.i = icmp eq ptr %11, null
  br i1 %tobool.not.i.i.i, label %_ZN12_GLOBAL__N_120elim_small_bv_tactic6rw_cfgD2Ev.exit, label %if.then.i.i.i

if.then.i.i.i:                                    ; preds = %_ZN10ref_vectorI4sort11ast_managerED2Ev.exit.i
  %m_ref_count.i.i.i.i = getelementptr inbounds i8, ptr %11, i64 8
  %12 = load i32, ptr %m_ref_count.i.i.i.i, align 8
  %dec.i.i.i.i = add i32 %12, -1
  store i32 %dec.i.i.i.i, ptr %m_ref_count.i.i.i.i, align 8
  %cmp.i.i.i1.i = icmp eq i32 %dec.i.i.i.i, 0
  br i1 %cmp.i.i.i1.i, label %if.then.i.i.i.i, label %_ZN12_GLOBAL__N_120elim_small_bv_tactic6rw_cfgD2Ev.exit

if.then.i.i.i.i:                                  ; preds = %if.then.i.i.i
  %vtable.i.i.i.i.i = load ptr, ptr %11, align 8
  %13 = load ptr, ptr %vtable.i.i.i.i.i, align 8
  tail call void %13(ptr noundef nonnull align 8 dereferenceable(12) %11) #15
  invoke void @_ZN6memory10deallocateEPv(ptr noundef nonnull %11)
          to label %_ZN12_GLOBAL__N_120elim_small_bv_tactic6rw_cfgD2Ev.exit unwind label %terminate.lpad.i.i

terminate.lpad.i.i:                               ; preds = %if.then.i.i.i.i
  %14 = landingpad { ptr, i32 }
          catch ptr null
  %15 = extractvalue { ptr, i32 } %14, 0
  tail call void @__clang_call_terminate(ptr %15) #16
  unreachable

_ZN12_GLOBAL__N_120elim_small_bv_tactic6rw_cfgD2Ev.exit: ; preds = %_ZN10ref_vectorI4sort11ast_managerED2Ev.exit.i, %if.then.i.i.i, %if.then.i.i.i.i
  %m_simp.i = getelementptr inbounds i8, ptr %this, i64 576
  tail call void @_ZN11th_rewriterD1Ev(ptr noundef nonnull align 8 dereferenceable(16) %m_simp.i) #15
  %m_params.i = getelementptr inbounds i8, ptr %this, i64 544
  tail call void @_ZN10params_refD1Ev(ptr noundef nonnull align 8 dereferenceable(8) %m_params.i) #15
  tail call void @_ZN12rewriter_tplIN12_GLOBAL__N_120elim_small_bv_tactic6rw_cfgEED2Ev(ptr noundef nonnull align 8 dereferenceable(536) %this) #15
  ret void
}